target datalayout = "e-m:e-p270:32:32-p271:32:32-p272:64:64-i64:64-i128:128-f80:128-n8:16:32:64-S128"
target triple = "x86_64-unknown-linux-gnu"

%struct.QCryptoBlockLUKSHeader = type { [6 x i8], i16, [32 x i8], [32 x i8], [32 x i8], i32, i32, [20 x i8], [32 x i8], i32, [40 x i8], [8 x %struct.QCryptoBlockLUKSKeySlot] }
%struct.QCryptoBlockLUKSKeySlot = type { i32, i32, [32 x i8], i32, i32 }
%struct.QCryptoBlock = type { i32, ptr, ptr, ptr, i64, i64, ptr, %struct.QemuMutex, i32, i64, i64, i64 }
%struct.QemuMutex = type { %union.pthread_mutex_t, i8 }
%union.pthread_mutex_t = type { %struct.__pthread_mutex_s }
%struct.__pthread_mutex_s = type { i32, i32, i32, i32, i32, i16, i16, %struct.__pthread_internal_list }
%struct.__pthread_internal_list = type { ptr, ptr }
%struct.QCryptoBlockLUKS = type { %struct.QCryptoBlockLUKSHeader, i32, i32, i32, i32, i32, i32, ptr }
%struct.QCryptoBlockInfo = type { i32, %union.anon.3 }
%union.anon.3 = type { %struct.QCryptoBlockInfoLUKS }
%struct.QCryptoBlockInfoLUKS = type { i32, i32, i32, i8, i32, i32, i64, i64, ptr, ptr }
%struct.QCryptoBlockInfoLUKSSlot = type { i8, i8, i64, i8, i64, i64 }
%struct.QCryptoBlockInfoLUKSSlotList = type { ptr, ptr }

; Function Attrs: nounwind sspstrong uwtable
define internal i32 @qcrypto_block_luks_get_info(ptr noundef %block, ptr noundef %info, ptr noundef %errp) #0 {
entry:
  %block.addr = alloca ptr, align 8
  %info.addr = alloca ptr, align 8
  %errp.addr = alloca ptr, align 8
  %luks = alloca ptr, align 8
  %slot = alloca ptr, align 8
  %tail = alloca ptr, align 8
  %i = alloca i64, align 8
  store ptr %block, ptr %block.addr, align 8
  store ptr %info, ptr %info.addr, align 8
  store ptr %errp, ptr %errp.addr, align 8
  %0 = load ptr, ptr %block.addr, align 8
  %opaque = getelementptr inbounds %struct.QCryptoBlock, ptr %0, i32 0, i32 2
  %1 = load ptr, ptr %opaque, align 8
  store ptr %1, ptr %luks, align 8
  %2 = load ptr, ptr %info.addr, align 8
  %u = getelementptr inbounds %struct.QCryptoBlockInfo, ptr %2, i32 0, i32 1
  %slots = getelementptr inbounds %struct.QCryptoBlockInfoLUKS, ptr %u, i32 0, i32 9
  store ptr %slots, ptr %tail, align 8
  %3 = load ptr, ptr %luks, align 8
  %cipher_alg = getelementptr inbounds %struct.QCryptoBlockLUKS, ptr %3, i32 0, i32 1
  %4 = load i32, ptr %cipher_alg, align 8
  %5 = load ptr, ptr %info.addr, align 8
  %u1 = getelementptr inbounds %struct.QCryptoBlockInfo, ptr %5, i32 0, i32 1
  %cipher_alg2 = getelementptr inbounds %struct.QCryptoBlockInfoLUKS, ptr %u1, i32 0, i32 0
  store i32 %4, ptr %cipher_alg2, align 8
  %6 = load ptr, ptr %luks, align 8
  %cipher_mode = getelementptr inbounds %struct.QCryptoBlockLUKS, ptr %6, i32 0, i32 2
  %7 = load i32, ptr %cipher_mode, align 4
  %8 = load ptr, ptr %info.addr, align 8
  %u3 = getelementptr inbounds %struct.QCryptoBlockInfo, ptr %8, i32 0, i32 1
  %cipher_mode4 = getelementptr inbounds %struct.QCryptoBlockInfoLUKS, ptr %u3, i32 0, i32 1
  store i32 %7, ptr %cipher_mode4, align 4
  %9 = load ptr, ptr %luks, align 8
  %ivgen_alg = getelementptr inbounds %struct.QCryptoBlockLUKS, ptr %9, i32 0, i32 3
  %10 = load i32, ptr %ivgen_alg, align 8
  %11 = load ptr, ptr %info.addr, align 8
  %u5 = getelementptr inbounds %struct.QCryptoBlockInfo, ptr %11, i32 0, i32 1
  %ivgen_alg6 = getelementptr inbounds %struct.QCryptoBlockInfoLUKS, ptr %u5, i32 0, i32 2
  store i32 %10, ptr %ivgen_alg6, align 8
  %12 = load ptr, ptr %info.addr, align 8
  %u7 = getelementptr inbounds %struct.QCryptoBlockInfo, ptr %12, i32 0, i32 1
  %ivgen_alg8 = getelementptr inbounds %struct.QCryptoBlockInfoLUKS, ptr %u7, i32 0, i32 2
  %13 = load i32, ptr %ivgen_alg8, align 8
  %cmp = icmp eq i32 %13, 2
  br i1 %cmp, label %if.then, label %if.end

if.then:                                          ; preds = %entry
  %14 = load ptr, ptr %info.addr, align 8
  %u9 = getelementptr inbounds %struct.QCryptoBlockInfo, ptr %14, i32 0, i32 1
  %has_ivgen_hash_alg = getelementptr inbounds %struct.QCryptoBlockInfoLUKS, ptr %u9, i32 0, i32 3
  store i8 1, ptr %has_ivgen_hash_alg, align 4
  %15 = load ptr, ptr %luks, align 8
  %ivgen_hash_alg = getelementptr inbounds %struct.QCryptoBlockLUKS, ptr %15, i32 0, i32 4
  %16 = load i32, ptr %ivgen_hash_alg, align 4
  %17 = load ptr, ptr %info.addr, align 8
  %u10 = getelementptr inbounds %struct.QCryptoBlockInfo, ptr %17, i32 0, i32 1
  %ivgen_hash_alg11 = getelementptr inbounds %struct.QCryptoBlockInfoLUKS, ptr %u10, i32 0, i32 4
  store i32 %16, ptr %ivgen_hash_alg11, align 8
  br label %if.end

if.end:                                           ; preds = %if.then, %entry
  %18 = load ptr, ptr %luks, align 8
  %hash_alg = getelementptr inbounds %struct.QCryptoBlockLUKS, ptr %18, i32 0, i32 6
  %19 = load i32, ptr %hash_alg, align 4
  %20 = load ptr, ptr %info.addr, align 8
  %u12 = getelementptr inbounds %struct.QCryptoBlockInfo, ptr %20, i32 0, i32 1
  %hash_alg13 = getelementptr inbounds %struct.QCryptoBlockInfoLUKS, ptr %u12, i32 0, i32 5
  store i32 %19, ptr %hash_alg13, align 4
  %21 = load ptr, ptr %block.addr, align 8
  %payload_offset = getelementptr inbounds %struct.QCryptoBlock, ptr %21, i32 0, i32 10
  %22 = load i64, ptr %payload_offset, align 8
  %23 = load ptr, ptr %info.addr, align 8
  %u14 = getelementptr inbounds %struct.QCryptoBlockInfo, ptr %23, i32 0, i32 1
  %payload_offset15 = getelementptr inbounds %struct.QCryptoBlockInfoLUKS, ptr %u14, i32 0, i32 6
  store i64 %22, ptr %payload_offset15, align 8
  %24 = load ptr, ptr %luks, align 8
  %header = getelementptr inbounds %struct.QCryptoBlockLUKS, ptr %24, i32 0, i32 0
  %master_key_iterations = getelementptr inbounds %struct.QCryptoBlockLUKSHeader, ptr %header, i32 0, i32 9
  %25 = load i32, ptr %master_key_iterations, align 4
  %conv = zext i32 %25 to i64
  %26 = load ptr, ptr %info.addr, align 8
  %u16 = getelementptr inbounds %struct.QCryptoBlockInfo, ptr %26, i32 0, i32 1
  %master_key_iters = getelementptr inbounds %struct.QCryptoBlockInfoLUKS, ptr %u16, i32 0, i32 7
  store i64 %conv, ptr %master_key_iters, align 8
  %27 = load ptr, ptr %luks, align 8
  %header17 = getelementptr inbounds %struct.QCryptoBlockLUKS, ptr %27, i32 0, i32 0
  %uuid = getelementptr inbounds %struct.QCryptoBlockLUKSHeader, ptr %header17, i32 0, i32 10
  %arraydecay = getelementptr inbounds [40 x i8], ptr %uuid, i64 0, i64 0
  %call = call noalias ptr @g_strndup(ptr noundef %arraydecay, i64 noundef 40)
  %28 = load ptr, ptr %info.addr, align 8
  %u18 = getelementptr inbounds %struct.QCryptoBlockInfo, ptr %28, i32 0, i32 1
  %uuid19 = getelementptr inbounds %struct.QCryptoBlockInfoLUKS, ptr %u18, i32 0, i32 8
  store ptr %call, ptr %uuid19, align 8
  store i64 0, ptr %i, align 8
  br label %for.cond

for.cond:                                         ; preds = %for.inc, %if.end
  %29 = load i64, ptr %i, align 8
  %cmp20 = icmp ult i64 %29, 8
  br i1 %cmp20, label %for.body, label %for.end

for.body:                                         ; preds = %for.cond
  %call22 = call noalias ptr @g_malloc0_n(i64 noundef 1, i64 noundef 40) #11
  store ptr %call22, ptr %slot, align 8
  %30 = load ptr, ptr %luks, align 8
  %header23 = getelementptr inbounds %struct.QCryptoBlockLUKS, ptr %30, i32 0, i32 0
  %key_slots = getelementptr inbounds %struct.QCryptoBlockLUKSHeader, ptr %header23, i32 0, i32 11
  %31 = load i64, ptr %i, align 8
  %arrayidx = getelementptr [8 x %struct.QCryptoBlockLUKSKeySlot], ptr %key_slots, i64 0, i64 %31
  %active = getelementptr inbounds %struct.QCryptoBlockLUKSKeySlot, ptr %arrayidx, i32 0, i32 0
  %32 = load i32, ptr %active, align 8
  %cmp24 = icmp eq i32 %32, 11301363
  %33 = load ptr, ptr %slot, align 8
  %active26 = getelementptr inbounds %struct.QCryptoBlockInfoLUKSSlot, ptr %33, i32 0, i32 0
  %frombool = zext i1 %cmp24 to i8
  store i8 %frombool, ptr %active26, align 8
  %34 = load ptr, ptr %luks, align 8
  %header27 = getelementptr inbounds %struct.QCryptoBlockLUKS, ptr %34, i32 0, i32 0
  %key_slots28 = getelementptr inbounds %struct.QCryptoBlockLUKSHeader, ptr %header27, i32 0, i32 11
  %35 = load i64, ptr %i, align 8
  %arrayidx29 = getelementptr [8 x %struct.QCryptoBlockLUKSKeySlot], ptr %key_slots28, i64 0, i64 %35
  %key_offset_sector = getelementptr inbounds %struct.QCryptoBlockLUKSKeySlot, ptr %arrayidx29, i32 0, i32 3
  %36 = load i32, ptr %key_offset_sector, align 8
  %conv30 = zext i32 %36 to i64
  %mul = mul i64 %conv30, 512
  %37 = load ptr, ptr %slot, align 8
  %key_offset = getelementptr inbounds %struct.QCryptoBlockInfoLUKSSlot, ptr %37, i32 0, i32 5
  store i64 %mul, ptr %key_offset, align 8
  %38 = load ptr, ptr %slot, align 8
  %active31 = getelementptr inbounds %struct.QCryptoBlockInfoLUKSSlot, ptr %38, i32 0, i32 0
  %39 = load i8, ptr %active31, align 8
  %tobool = trunc i8 %39 to i1
  br i1 %tobool, label %if.then32, label %if.end42

if.then32:                                        ; preds = %for.body
  %40 = load ptr, ptr %slot, align 8
  %has_iters = getelementptr inbounds %struct.QCryptoBlockInfoLUKSSlot, ptr %40, i32 0, i32 1
  store i8 1, ptr %has_iters, align 1
  %41 = load ptr, ptr %luks, align 8
  %header33 = getelementptr inbounds %struct.QCryptoBlockLUKS, ptr %41, i32 0, i32 0
  %key_slots34 = getelementptr inbounds %struct.QCryptoBlockLUKSHeader, ptr %header33, i32 0, i32 11
  %42 = load i64, ptr %i, align 8
  %arrayidx35 = getelementptr [8 x %struct.QCryptoBlockLUKSKeySlot], ptr %key_slots34, i64 0, i64 %42
  %iterations = getelementptr inbounds %struct.QCryptoBlockLUKSKeySlot, ptr %arrayidx35, i32 0, i32 1
  %43 = load i32, ptr %iterations, align 4
  %conv36 = zext i32 %43 to i64
  %44 = load ptr, ptr %slot, align 8
  %iters = getelementptr inbounds %struct.QCryptoBlockInfoLUKSSlot, ptr %44, i32 0, i32 2
  store i64 %conv36, ptr %iters, align 8
  %45 = load ptr, ptr %slot, align 8
  %has_stripes = getelementptr inbounds %struct.QCryptoBlockInfoLUKSSlot, ptr %45, i32 0, i32 3
  store i8 1, ptr %has_stripes, align 8
  %46 = load ptr, ptr %luks, align 8
  %header37 = getelementptr inbounds %struct.QCryptoBlockLUKS, ptr %46, i32 0, i32 0
  %key_slots38 = getelementptr inbounds %struct.QCryptoBlockLUKSHeader, ptr %header37, i32 0, i32 11
  %47 = load i64, ptr %i, align 8
  %arrayidx39 = getelementptr [8 x %struct.QCryptoBlockLUKSKeySlot], ptr %key_slots38, i64 0, i64 %47
  %stripes = getelementptr inbounds %struct.QCryptoBlockLUKSKeySlot, ptr %arrayidx39, i32 0, i32 4
  %48 = load i32, ptr %stripes, align 4
  %conv40 = zext i32 %48 to i64
  %49 = load ptr, ptr %slot, align 8
  %stripes41 = getelementptr inbounds %struct.QCryptoBlockInfoLUKSSlot, ptr %49, i32 0, i32 4
  store i64 %conv40, ptr %stripes41, align 8
  br label %if.end42

if.end42:                                         ; preds = %if.then32, %for.body
  br label %do.body

do.body:                                          ; preds = %if.end42
  %call43 = call noalias ptr @g_malloc0(i64 noundef 16) #15
  %50 = load ptr, ptr %tail, align 8
  store ptr %call43, ptr %50, align 8
  %51 = load ptr, ptr %slot, align 8
  %52 = load ptr, ptr %tail, align 8
  %53 = load ptr, ptr %52, align 8
  %value = getelementptr inbounds %struct.QCryptoBlockInfoLUKSSlotList, ptr %53, i32 0, i32 1
  store ptr %51, ptr %value, align 8
  %54 = load ptr, ptr %tail, align 8
  %55 = load ptr, ptr %54, align 8
  %next = getelementptr inbounds %struct.QCryptoBlockInfoLUKSSlotList, ptr %55, i32 0, i32 0
  store ptr %next, ptr %tail, align 8
  br label %do.end

do.end:                                           ; preds = %do.body
  br label %for.inc

for.inc:                                          ; preds = %do.end
  %56 = load i64, ptr %i, align 8
  %inc = add i64 %56, 1
  store i64 %inc, ptr %i, align 8
  br label %for.cond, !llvm.loop !9

for.end:                                          ; preds = %for.cond
  ret i32 0
}