; Function Attrs: nounwind sspstrong uwtable
define internal noundef i32 @qcrypto_block_luks_get_info(ptr noundef readonly captures(none) %block, ptr noundef captures(none) initializes((8, 20), (28, 56)) %info, ptr readnone captures(none) %errp) #1 {
entry:
  %opaque = getelementptr inbounds nuw i8, ptr %block, i64 16
  %0 = load ptr, ptr %opaque, align 8
  %u = getelementptr inbounds nuw i8, ptr %info, i64 8
  %slots = getelementptr inbounds nuw i8, ptr %info, i64 56
  %cipher_alg = getelementptr inbounds nuw i8, ptr %0, i64 592
  %1 = load i32, ptr %cipher_alg, align 8
  store i32 %1, ptr %u, align 8
  %cipher_mode = getelementptr inbounds nuw i8, ptr %0, i64 596
  %2 = load i32, ptr %cipher_mode, align 4
  %cipher_mode4 = getelementptr inbounds nuw i8, ptr %info, i64 12
  store i32 %2, ptr %cipher_mode4, align 4
  %ivgen_alg = getelementptr inbounds nuw i8, ptr %0, i64 600
  %3 = load i32, ptr %ivgen_alg, align 8
  %ivgen_alg6 = getelementptr inbounds nuw i8, ptr %info, i64 16
  store i32 %3, ptr %ivgen_alg6, align 8
  %cmp = icmp eq i32 %3, 2
  br i1 %cmp, label %if.then, label %if.end

if.then:                                          ; preds = %entry
  %has_ivgen_hash_alg = getelementptr inbounds nuw i8, ptr %info, i64 20
  store i8 1, ptr %has_ivgen_hash_alg, align 4
  %ivgen_hash_alg = getelementptr inbounds nuw i8, ptr %0, i64 604
  %4 = load i32, ptr %ivgen_hash_alg, align 4
  %ivgen_hash_alg11 = getelementptr inbounds nuw i8, ptr %info, i64 24
  store i32 %4, ptr %ivgen_hash_alg11, align 8
  br label %if.end

if.end:                                           ; preds = %if.then, %entry
  %hash_alg = getelementptr inbounds nuw i8, ptr %0, i64 612
  %5 = load i32, ptr %hash_alg, align 4
  %hash_alg13 = getelementptr inbounds nuw i8, ptr %info, i64 28
  store i32 %5, ptr %hash_alg13, align 4
  %payload_offset = getelementptr inbounds nuw i8, ptr %block, i64 120
  %6 = load i64, ptr %payload_offset, align 8
  %payload_offset15 = getelementptr inbounds nuw i8, ptr %info, i64 32
  store i64 %6, ptr %payload_offset15, align 8
  %master_key_iterations = getelementptr inbounds nuw i8, ptr %0, i64 164
  %7 = load i32, ptr %master_key_iterations, align 4
  %conv = zext i32 %7 to i64
  %master_key_iters = getelementptr inbounds nuw i8, ptr %info, i64 40
  store i64 %conv, ptr %master_key_iters, align 8
  %uuid = getelementptr inbounds nuw i8, ptr %0, i64 168
  %call = tail call noalias ptr @g_strndup(ptr noundef nonnull %uuid, i64 noundef 40) #16
  %uuid19 = getelementptr inbounds nuw i8, ptr %info, i64 48
  store ptr %call, ptr %uuid19, align 8
  %key_slots = getelementptr inbounds nuw i8, ptr %0, i64 208
  br label %for.body

for.body:                                         ; preds = %if.end, %do.body
  %i.037 = phi i64 [ 0, %if.end ], [ %inc, %do.body ]
  %tail.036 = phi ptr [ %slots, %if.end ], [ %12, %do.body ]
  %call22 = tail call noalias dereferenceable_or_null(40) ptr @g_malloc0_n(i64 noundef 1, i64 noundef 40) #17
  %arrayidx = getelementptr [8 x %struct.QCryptoBlockLUKSKeySlot], ptr %key_slots, i64 0, i64 %i.037
  %8 = load i32, ptr %arrayidx, align 8
  %cmp24 = icmp eq i32 %8, 11301363
  %frombool = zext i1 %cmp24 to i8
  store i8 %frombool, ptr %call22, align 8
  %key_offset_sector = getelementptr inbounds nuw i8, ptr %arrayidx, i64 40
  %9 = load i32, ptr %key_offset_sector, align 8
  %conv30 = zext i32 %9 to i64
  %mul = shl nuw nsw i64 %conv30, 9
  %key_offset = getelementptr inbounds nuw i8, ptr %call22, i64 32
  store i64 %mul, ptr %key_offset, align 8
  br i1 %cmp24, label %if.then32, label %do.body

if.then32:                                        ; preds = %for.body
  %has_iters = getelementptr inbounds nuw i8, ptr %call22, i64 1
  store i8 1, ptr %has_iters, align 1
  %iterations = getelementptr inbounds nuw i8, ptr %arrayidx, i64 4
  %10 = load i32, ptr %iterations, align 4
  %conv36 = zext i32 %10 to i64
  %iters = getelementptr inbounds nuw i8, ptr %call22, i64 8
  store i64 %conv36, ptr %iters, align 8
  %has_stripes = getelementptr inbounds nuw i8, ptr %call22, i64 16
  store i8 1, ptr %has_stripes, align 8
  %stripes = getelementptr inbounds nuw i8, ptr %arrayidx, i64 44
  %11 = load i32, ptr %stripes, align 4
  %conv40 = zext i32 %11 to i64
  %stripes41 = getelementptr inbounds nuw i8, ptr %call22, i64 24
  store i64 %conv40, ptr %stripes41, align 8
  br label %do.body

do.body:                                          ; preds = %for.body, %if.then32
  %call43 = tail call noalias dereferenceable_or_null(16) ptr @g_malloc0(i64 noundef 16) #20
  store ptr %call43, ptr %tail.036, align 8
  %value = getelementptr inbounds nuw i8, ptr %call43, i64 8
  store ptr %call22, ptr %value, align 8
  %12 = load ptr, ptr %tail.036, align 8
  %inc = add nuw nsw i64 %i.037, 1
  %exitcond.not = icmp eq i64 %inc, 8
  br i1 %exitcond.not, label %for.end, label %for.body, !llvm.loop !20

for.end:                                          ; preds = %do.body
  ret i32 0
}